(dp1
S'OriginalConfig'
p2
ccopy_reg
_reconstructor
p3
(cWMCore.Configuration
Configuration
p4
c__builtin__
object
p5
NtRp6
(dp7
S'Site'
p8
g3
(cWMCore.Configuration
ConfigSection
p9
g5
NtRp10
(dp11
S'_internal_skipChecks'
p12
I00
sS'_internal_documentation'
p13
S''
sS'_internal_settings'
p14
c__builtin__
set
p15
((lp16
S'storageSite'
p17
atRp18
sS'_internal_name'
p19
g8
sS'_internal_docstrings'
p20
(dp21
sS'_internal_children'
p22
g15
((ltRp23
sg17
S'T2_CH_CERN'
p24
sS'_internal_parent_ref'
p25
NsbsS'_internal_sections'
p26
(lp27
S'General'
p28
aS'JobType'
p29
aS'Data'
p30
ag8
aS'User'
p31
aS'Debug'
p32
asg28
g3
(g9
g5
NtRp33
(dp34
g12
I00
sg13
S''
sg14
g15
((ltRp35
sg19
g28
sg20
(dp36
sg22
g15
((ltRp37
sg25
NsbsS'_internal_webapps'
p38
(lp39
sg31
g3
(g9
g5
NtRp40
(dp41
g12
I00
sg13
S''
sg14
g15
((ltRp42
sg19
g31
sg20
(dp43
sg22
g15
((ltRp44
sg25
NsbsS'_internal_components'
p45
(lp46
sg32
g3
(g9
g5
NtRp47
(dp48
g12
I00
sg13
S''
sg14
g15
((ltRp49
sg19
g32
sg20
(dp50
sg22
g15
((ltRp51
sg25
Nsbsg30
g3
(g9
g5
NtRp52
(dp53
S'inputDataset'
p54
S'/DarkPhotonToMuMu_M30_madgraph_pythia8_TuneCP5/RunIIFall17DRPremix-PU2017_94X_mc2017_realistic_v11-v1/AODSIM'
p55
sg12
I00
sS'unitsPerJob'
p56
I10000
sg13
S''
sg14
g15
((lp57
g54
ag56
aS'publication'
p58
aS'splitting'
p59
aS'outLFNDirBase'
p60
atRp61
sg19
g30
sg59
S'EventAwareLumiBased'
p62
sg20
(dp63
sg22
g15
((ltRp64
sg60
S'/store/group/phys_exotica/darkPhoton/schhibra/ScoutingNTuples2017'
p65
sg25
Nsg58
I00
sbsg29
g3
(g9
g5
NtRp66
(dp67
g12
I00
sS'pyCfgParams'
p68
(lp69
S'isMC=True'
p70
aS'useLHEWeights=True'
p71
aS'GlobalTag=94X_mc2017_realistic_v11'
p72
aS'roccorData=Rochester/RoccoR2017.txt'
p73
asg13
S''
sg14
g15
((lp74
S'psetName'
p75
aS'pluginName'
p76
aS'inputFiles'
p77
ag68
aS'scriptExe'
p78
atRp79
sg19
g29
sg78
S'../exec.sh'
p80
sg20
(dp81
sg76
S'Analysis'
p82
sg22
g15
((ltRp83
sg75
S'../../test/tree_scout_cfg.py'
p84
sg25
Nsg77
(lp85
S'../Rochester.tar.gz'
p86
asbsbsS'voGroup'
p87
S''
sS'Server'
p88
S'cmsweb.cern.ch'
p89
sS'instance'
p90
S'prod'
p91
sS'RequestName'
p92
V190508_183615:schhibra_crab_20190508_203607
p93
sS'voRole'
p94
S'NULL'
p95
sS'Port'
p96
S''
s.