(dp1
S'OriginalConfig'
p2
ccopy_reg
_reconstructor
p3
(cWMCore.Configuration
Configuration
p4
c__builtin__
object
p5
NtRp6
(dp7
S'Site'
p8
g3
(cWMCore.Configuration
ConfigSection
p9
g5
NtRp10
(dp11
S'_internal_skipChecks'
p12
I00
sS'_internal_documentation'
p13
S''
sS'_internal_settings'
p14
c__builtin__
set
p15
((lp16
S'storageSite'
p17
atRp18
sS'_internal_name'
p19
g8
sS'_internal_docstrings'
p20
(dp21
sS'_internal_children'
p22
g15
((ltRp23
sg17
S'T2_CH_CERN'
p24
sS'_internal_parent_ref'
p25
NsbsS'_internal_sections'
p26
(lp27
S'General'
p28
aS'JobType'
p29
aS'Data'
p30
ag8
aS'User'
p31
aS'Debug'
p32
asg28
g3
(g9
g5
NtRp33
(dp34
g12
I00
sg13
S''
sg14
g15
((ltRp35
sg19
g28
sg20
(dp36
sg22
g15
((ltRp37
sg25
NsbsS'_internal_webapps'
p38
(lp39
sg31
g3
(g9
g5
NtRp40
(dp41
g12
I00
sg13
S''
sg14
g15
((ltRp42
sg19
g31
sg20
(dp43
sg22
g15
((ltRp44
sg25
NsbsS'_internal_components'
p45
(lp46
sg32
g3
(g9
g5
NtRp47
(dp48
g12
I00
sg13
S''
sg14
g15
((ltRp49
sg19
g32
sg20
(dp50
sg22
g15
((ltRp51
sg25
Nsbsg30
g3
(g9
g5
NtRp52
(dp53
S'inputDataset'
p54
S'/ScoutingCaloMuon/Run2017E-v1/RAW'
p55
sg12
I00
sS'unitsPerJob'
p56
I100
sg13
S''
sg14
g15
((lp57
g54
aS'publication'
p58
ag56
aS'splitting'
p59
aS'lumiMask'
p60
aS'outLFNDirBase'
p61
atRp62
sg19
g30
sg59
S'LumiBased'
p63
sg20
(dp64
sg22
g15
((ltRp65
sg61
S'/store/group/phys_exotica/darkPhoton/schhibra/ScoutingNTuples2017'
p66
sg25
Nsg60
S'/afs/cern.ch/work/s/schhibra/public/Cert_Run2017C_D_E_F_scouting_12_5_on.json'
p67
sg58
I00
sbsg29
g3
(g9
g5
NtRp68
(dp69
g12
I00
sS'pyCfgParams'
p70
(lp71
S'applyHLTFilter=True'
p72
aS'applyDimuonFilter=True'
p73
aS'GlobalTag=94X_dataRun2_ReReco17_forValidation'
p74
aS'roccorData=Rochester/RoccoR2017.txt'
p75
asg13
S''
sg14
g15
((lp76
S'psetName'
p77
aS'pluginName'
p78
aS'inputFiles'
p79
ag70
aS'scriptExe'
p80
atRp81
sg19
g29
sg80
S'../exec.sh'
p82
sg20
(dp83
sg78
S'Analysis'
p84
sg22
g15
((ltRp85
sg77
S'../../test/tree_scout_cfg.py'
p86
sg25
Nsg79
(lp87
S'../Rochester.tar.gz'
p88
asbsbsS'voGroup'
p89
S''
sS'Server'
p90
S'cmsweb.cern.ch'
p91
sS'instance'
p92
S'prod'
p93
sS'RequestName'
p94
V190513_172507:schhibra_crab_20190513_192459
p95
sS'voRole'
p96
S'NULL'
p97
sS'Port'
p98
S''
s.